#include <math.h>
#include <stdio.h>
#include <stdlib.h>
#include <string.h>

main()
{
  int m,i,j;
  scanf("%d",&m);
  for(i=3;i<=m/2;i++)
  {
     for(j=2;j<=i;j++)
     {
        if(i%j==0) break;
      }
     if(j==i)
     {
        for(j=2;j<=m-i;j++)
        {
           if((m-i)%j==0) break;
         }
        if(j==m-i) printf("%d %d\n",i,m-i);
      }
   }
}
           