; ModuleID = '43/1353.c'
source_filename = "43/1353.c"
target datalayout = "e-m:e-p270:32:32-p271:32:32-p272:64:64-i64:64-f80:128-n8:16:32:64-S128"
target triple = "x86_64-pc-linux-gnu"

@.str = private unnamed_addr constant [3 x i8] c"%d\00", align 1
@.str.1 = private unnamed_addr constant [7 x i8] c"%d %d\0A\00", align 1

; Function Attrs: noinline nounwind uwtable
define dso_local i32 @main() #0 {
  %1 = alloca i32, align 4
  %2 = alloca i32, align 4
  %3 = alloca i32, align 4
  %4 = alloca i32, align 4
  store i32 0, i32* %1, align 4
  %5 = call i32 (i8*, ...) @__isoc99_scanf(i8* getelementptr inbounds ([3 x i8], [3 x i8]* @.str, i64 0, i64 0), i32* %2)
  store i32 3, i32* %3, align 4
  br label %6

6:                                                ; preds = %63, %0
  %7 = load i32, i32* %3, align 4
  %8 = load i32, i32* %2, align 4
  %9 = sdiv i32 %8, 2
  %10 = icmp sle i32 %7, %9
  br i1 %10, label %11, label %66

11:                                               ; preds = %6
  store i32 2, i32* %4, align 4
  br label %12

12:                                               ; preds = %23, %11
  %13 = load i32, i32* %4, align 4
  %14 = load i32, i32* %3, align 4
  %15 = icmp sle i32 %13, %14
  br i1 %15, label %16, label %26

16:                                               ; preds = %12
  %17 = load i32, i32* %3, align 4
  %18 = load i32, i32* %4, align 4
  %19 = srem i32 %17, %18
  %20 = icmp eq i32 %19, 0
  br i1 %20, label %21, label %22

21:                                               ; preds = %16
  br label %26

22:                                               ; preds = %16
  br label %23

23:                                               ; preds = %22
  %24 = load i32, i32* %4, align 4
  %25 = add nsw i32 %24, 1
  store i32 %25, i32* %4, align 4
  br label %12

26:                                               ; preds = %21, %12
  %27 = load i32, i32* %4, align 4
  %28 = load i32, i32* %3, align 4
  %29 = icmp eq i32 %27, %28
  br i1 %29, label %30, label %62

30:                                               ; preds = %26
  store i32 2, i32* %4, align 4
  br label %31

31:                                               ; preds = %46, %30
  %32 = load i32, i32* %4, align 4
  %33 = load i32, i32* %2, align 4
  %34 = load i32, i32* %3, align 4
  %35 = sub nsw i32 %33, %34
  %36 = icmp sle i32 %32, %35
  br i1 %36, label %37, label %49

37:                                               ; preds = %31
  %38 = load i32, i32* %2, align 4
  %39 = load i32, i32* %3, align 4
  %40 = sub nsw i32 %38, %39
  %41 = load i32, i32* %4, align 4
  %42 = srem i32 %40, %41
  %43 = icmp eq i32 %42, 0
  br i1 %43, label %44, label %45

44:                                               ; preds = %37
  br label %49

45:                                               ; preds = %37
  br label %46

46:                                               ; preds = %45
  %47 = load i32, i32* %4, align 4
  %48 = add nsw i32 %47, 1
  store i32 %48, i32* %4, align 4
  br label %31

49:                                               ; preds = %44, %31
  %50 = load i32, i32* %4, align 4
  %51 = load i32, i32* %2, align 4
  %52 = load i32, i32* %3, align 4
  %53 = sub nsw i32 %51, %52
  %54 = icmp eq i32 %50, %53
  br i1 %54, label %55, label %61

55:                                               ; preds = %49
  %56 = load i32, i32* %3, align 4
  %57 = load i32, i32* %2, align 4
  %58 = load i32, i32* %3, align 4
  %59 = sub nsw i32 %57, %58
  %60 = call i32 (i8*, ...) @printf(i8* getelementptr inbounds ([7 x i8], [7 x i8]* @.str.1, i64 0, i64 0), i32 %56, i32 %59)
  br label %61

61:                                               ; preds = %55, %49
  br label %62

62:                                               ; preds = %61, %26
  br label %63

63:                                               ; preds = %62
  %64 = load i32, i32* %3, align 4
  %65 = add nsw i32 %64, 1
  store i32 %65, i32* %3, align 4
  br label %6

66:                                               ; preds = %6
  %67 = load i32, i32* %1, align 4
  ret i32 %67
}

declare dso_local i32 @__isoc99_scanf(i8*, ...) #1

declare dso_local i32 @printf(i8*, ...) #1


!llvm.module.flags = !{!0}
!llvm.ident = !{!1}

!0 = !{i32 1, !"wchar_size", i32 4}
!1 = !{!"clang version 10.0.0-4ubuntu1 "}
