; ModuleID = 'source-C-CXX/42/1353.c'
source_filename = "source-C-CXX/42/1353.c"
target datalayout = "e-m:e-p270:32:32-p271:32:32-p272:64:64-i64:64-f80:128-n8:16:32:64-S128"
target triple = "x86_64-pc-linux-gnu"

@.str = private unnamed_addr constant [3 x i8] c"%d\00", align 1
@.str.1 = private unnamed_addr constant [7 x i8] c"%d %d\0A\00", align 1

; Function Attrs: nofree nounwind sspstrong uwtable
define dso_local i32 @main() local_unnamed_addr #0 {
  %1 = alloca i32, align 4
  %2 = bitcast i32* %1 to i8*
  call void @llvm.lifetime.start.p0i8(i64 4, i8* nonnull %2) #3
  %3 = call i32 (i8*, ...) @__isoc99_scanf(i8* getelementptr inbounds ([3 x i8], [3 x i8]* @.str, i64 0, i64 0), i32* nonnull %1)
  %4 = load i32, i32* %1, align 4, !tbaa !5
  %5 = icmp slt i32 %4, 6
  br i1 %5, label %45, label %6

6:                                                ; preds = %0, %38
  %7 = phi i32 [ %39, %38 ], [ %4, %0 ]
  %8 = phi i32 [ %44, %38 ], [ -2, %0 ]
  %9 = phi i32 [ %43, %38 ], [ 4, %0 ]
  %10 = phi i32 [ %40, %38 ], [ 3, %0 ]
  br label %11

11:                                               ; preds = %6, %15
  %12 = phi i32 [ %16, %15 ], [ 2, %6 ]
  %13 = urem i32 %10, %12
  %14 = icmp eq i32 %13, 0
  br i1 %14, label %18, label %15

15:                                               ; preds = %11
  %16 = add nuw nsw i32 %12, 1
  %17 = icmp eq i32 %16, %9
  br i1 %17, label %38, label %11, !llvm.loop !9

18:                                               ; preds = %11
  %19 = icmp eq i32 %12, %10
  br i1 %19, label %20, label %38

20:                                               ; preds = %18
  %21 = sub nsw i32 %7, %10
  %22 = icmp slt i32 %21, 2
  br i1 %22, label %32, label %23

23:                                               ; preds = %20
  %24 = add i32 %7, %8
  br label %25

25:                                               ; preds = %23, %29
  %26 = phi i32 [ %30, %29 ], [ 2, %23 ]
  %27 = srem i32 %21, %26
  %28 = icmp eq i32 %27, 0
  br i1 %28, label %32, label %29

29:                                               ; preds = %25
  %30 = add nuw i32 %26, 1
  %31 = icmp eq i32 %30, %24
  br i1 %31, label %32, label %25, !llvm.loop !11

32:                                               ; preds = %29, %25, %20
  %33 = phi i32 [ 2, %20 ], [ %26, %25 ], [ %24, %29 ]
  %34 = icmp eq i32 %33, %21
  br i1 %34, label %35, label %38

35:                                               ; preds = %32
  %36 = call i32 (i8*, ...) @printf(i8* nonnull dereferenceable(1) getelementptr inbounds ([7 x i8], [7 x i8]* @.str.1, i64 0, i64 0), i32 %10, i32 %21)
  %37 = load i32, i32* %1, align 4, !tbaa !5
  br label %38

38:                                               ; preds = %15, %18, %35, %32
  %39 = phi i32 [ %7, %18 ], [ %37, %35 ], [ %7, %32 ], [ %7, %15 ]
  %40 = add nuw nsw i32 %10, 1
  %41 = sdiv i32 %39, 2
  %42 = icmp slt i32 %10, %41
  %43 = add nuw nsw i32 %9, 1
  %44 = add nsw i32 %8, -1
  br i1 %42, label %6, label %45, !llvm.loop !12

45:                                               ; preds = %38, %0
  call void @llvm.lifetime.end.p0i8(i64 4, i8* nonnull %2) #3
  ret i32 0
}

; Function Attrs: argmemonly mustprogress nofree nosync nounwind willreturn
declare void @llvm.lifetime.start.p0i8(i64 immarg, i8* nocapture) #1

; Function Attrs: nofree nounwind
declare noundef i32 @__isoc99_scanf(i8* nocapture noundef readonly, ...) local_unnamed_addr #2

; Function Attrs: nofree nounwind
declare noundef i32 @printf(i8* nocapture noundef readonly, ...) local_unnamed_addr #2

; Function Attrs: argmemonly mustprogress nofree nosync nounwind willreturn
declare void @llvm.lifetime.end.p0i8(i64 immarg, i8* nocapture) #1


!llvm.module.flags = !{!0, !1, !2, !3}
!llvm.ident = !{!4}

!0 = !{i32 1, !"wchar_size", i32 4}
!1 = !{i32 7, !"PIC Level", i32 2}
!2 = !{i32 7, !"PIE Level", i32 2}
!3 = !{i32 7, !"uwtable", i32 1}
!4 = !{!"clang version 13.0.0"}
!5 = !{!6, !6, i64 0}
!6 = !{!"int", !7, i64 0}
!7 = !{!"omnipotent char", !8, i64 0}
!8 = !{!"Simple C/C++ TBAA"}
!9 = distinct !{!9, !10}
!10 = !{!"llvm.loop.mustprogress"}
!11 = distinct !{!11, !10}
!12 = distinct !{!12, !10}
